target datalayout = "e-m:e-p270:32:32-p271:32:32-p272:64:64-i64:64-i128:128-f80:128-n8:16:32:64-S128"
target triple = "x86_64-pc-linux-gnu"

%"class.Imf_3_4::DeepTiledInputPart" = type { ptr }
%"class.Imf_3_4::DeepTiledOutputPart" = type { ptr }

; Function Attrs: mustprogress uwtable
define dso_local void @_Z13copy_tiledeepRN7Imf_3_418MultiPartInputFileERNS_19MultiPartOutputFileEii(ptr noundef nonnull align 8 dereferenceable(32) %0, ptr noundef nonnull align 8 dereferenceable(16) %1, i32 noundef %2, i32 noundef %3) #6 {
  %5 = alloca ptr, align 8
  %6 = alloca ptr, align 8
  %7 = alloca i32, align 4
  %8 = alloca i32, align 4
  %9 = alloca %"class.Imf_3_4::DeepTiledInputPart", align 8
  %10 = alloca %"class.Imf_3_4::DeepTiledOutputPart", align 8
  store ptr %0, ptr %5, align 8, !tbaa !13
  store ptr %1, ptr %6, align 8, !tbaa !15
  store i32 %2, ptr %7, align 4, !tbaa !17
  store i32 %3, ptr %8, align 4, !tbaa !17
  call void @llvm.lifetime.start.p0(i64 8, ptr %9) #3
  %11 = load ptr, ptr %5, align 8, !tbaa !13
  %12 = load i32, ptr %7, align 4, !tbaa !17
  call void @_ZN7Imf_3_418DeepTiledInputPartC1ERNS_18MultiPartInputFileEi(ptr noundef nonnull align 8 dereferenceable(8) %9, ptr noundef nonnull align 8 dereferenceable(32) %11, i32 noundef %12)
  call void @llvm.lifetime.start.p0(i64 8, ptr %10) #3
  %13 = load ptr, ptr %6, align 8, !tbaa !15
  %14 = load i32, ptr %8, align 4, !tbaa !17
  call void @_ZN7Imf_3_419DeepTiledOutputPartC1ERNS_19MultiPartOutputFileEi(ptr noundef nonnull align 8 dereferenceable(8) %10, ptr noundef nonnull align 8 dereferenceable(16) %13, i32 noundef %14)
  call void @_ZN7Imf_3_419DeepTiledOutputPart10copyPixelsERNS_18DeepTiledInputPartE(ptr noundef nonnull align 8 dereferenceable(8) %10, ptr noundef nonnull align 8 dereferenceable(8) %9)
  call void @llvm.lifetime.end.p0(i64 8, ptr %10) #3
  call void @llvm.lifetime.end.p0(i64 8, ptr %9) #3
  ret void
}